; ModuleID = 'source-C-CXX/7/1344.c'
source_filename = "source-C-CXX/7/1344.c"
target datalayout = "e-m:e-p270:32:32-p271:32:32-p272:64:64-i64:64-f80:128-n8:16:32:64-S128"
target triple = "x86_64-pc-linux-gnu"

@.str = private unnamed_addr constant [5 x i8] c"%d%d\00", align 1
@.str.1 = private unnamed_addr constant [3 x i8] c"%d\00", align 1
@.str.2 = private unnamed_addr constant [4 x i8] c"%d \00", align 1
@.str.3 = private unnamed_addr constant [4 x i8] c"%d\0A\00", align 1

; Function Attrs: mustprogress nofree norecurse nosync nounwind readonly sspstrong uwtable willreturn
define dso_local i32 @compare(i8* nocapture readonly %0, i8* nocapture readonly %1) #0 {
  %3 = bitcast i8* %0 to i32*
  %4 = load i32, i32* %3, align 4, !tbaa !5
  %5 = bitcast i8* %1 to i32*
  %6 = load i32, i32* %5, align 4, !tbaa !5
  %7 = sub nsw i32 %4, %6
  ret i32 %7
}

; Function Attrs: nofree nounwind sspstrong uwtable
define dso_local i32 @main() local_unnamed_addr #1 {
  %1 = alloca i32, align 4
  %2 = alloca i32, align 4
  %3 = bitcast i32* %1 to i8*
  call void @llvm.lifetime.start.p0i8(i64 4, i8* nonnull %3) #6
  %4 = bitcast i32* %2 to i8*
  call void @llvm.lifetime.start.p0i8(i64 4, i8* nonnull %4) #6
  %5 = call i32 (i8*, ...) @__isoc99_scanf(i8* getelementptr inbounds ([5 x i8], [5 x i8]* @.str, i64 0, i64 0), i32* nonnull %1, i32* nonnull %2)
  %6 = load i32, i32* %1, align 4, !tbaa !5
  %7 = zext i32 %6 to i64
  %8 = call i8* @llvm.stacksave()
  %9 = alloca i32, i64 %7, align 16
  %10 = load i32, i32* %2, align 4, !tbaa !5
  %11 = zext i32 %10 to i64
  %12 = alloca i32, i64 %11, align 16
  %13 = load i32, i32* %1, align 4, !tbaa !5
  %14 = icmp sgt i32 %13, 0
  br i1 %14, label %21, label %17

15:                                               ; preds = %21
  %16 = load i32, i32* %2, align 4, !tbaa !5
  br label %17

17:                                               ; preds = %15, %0
  %18 = phi i32 [ %26, %15 ], [ %13, %0 ]
  %19 = phi i32 [ %16, %15 ], [ %10, %0 ]
  %20 = icmp sgt i32 %19, 0
  br i1 %20, label %29, label %39

21:                                               ; preds = %0, %21
  %22 = phi i64 [ %25, %21 ], [ 0, %0 ]
  %23 = getelementptr inbounds i32, i32* %9, i64 %22
  %24 = call i32 (i8*, ...) @__isoc99_scanf(i8* getelementptr inbounds ([3 x i8], [3 x i8]* @.str.1, i64 0, i64 0), i32* nonnull %23)
  %25 = add nuw nsw i64 %22, 1
  %26 = load i32, i32* %1, align 4, !tbaa !5
  %27 = sext i32 %26 to i64
  %28 = icmp slt i64 %25, %27
  br i1 %28, label %21, label %15, !llvm.loop !9

29:                                               ; preds = %17, %29
  %30 = phi i64 [ %33, %29 ], [ 0, %17 ]
  %31 = getelementptr inbounds i32, i32* %12, i64 %30
  %32 = call i32 (i8*, ...) @__isoc99_scanf(i8* getelementptr inbounds ([3 x i8], [3 x i8]* @.str.1, i64 0, i64 0), i32* nonnull %31)
  %33 = add nuw nsw i64 %30, 1
  %34 = load i32, i32* %2, align 4, !tbaa !5
  %35 = sext i32 %34 to i64
  %36 = icmp slt i64 %33, %35
  br i1 %36, label %29, label %37, !llvm.loop !11

37:                                               ; preds = %29
  %38 = load i32, i32* %1, align 4, !tbaa !5
  br label %39

39:                                               ; preds = %37, %17
  %40 = phi i32 [ %38, %37 ], [ %18, %17 ]
  %41 = bitcast i32* %9 to i8*
  %42 = sext i32 %40 to i64
  call void @qsort(i8* nonnull %41, i64 %42, i64 4, i32 (i8*, i8*)* nonnull @compare) #6
  %43 = load i32, i32* %1, align 4, !tbaa !5
  %44 = icmp sgt i32 %43, 1
  br i1 %44, label %45, label %57

45:                                               ; preds = %39, %45
  %46 = phi i64 [ %50, %45 ], [ 0, %39 ]
  %47 = getelementptr inbounds i32, i32* %9, i64 %46
  %48 = load i32, i32* %47, align 4, !tbaa !5
  %49 = call i32 (i8*, ...) @printf(i8* nonnull dereferenceable(1) getelementptr inbounds ([4 x i8], [4 x i8]* @.str.2, i64 0, i64 0), i32 %48)
  %50 = add nuw nsw i64 %46, 1
  %51 = load i32, i32* %1, align 4, !tbaa !5
  %52 = add nsw i32 %51, -1
  %53 = sext i32 %52 to i64
  %54 = icmp slt i64 %50, %53
  br i1 %54, label %45, label %55, !llvm.loop !12

55:                                               ; preds = %45
  %56 = and i64 %50, 4294967295
  br label %57

57:                                               ; preds = %55, %39
  %58 = phi i64 [ 0, %39 ], [ %56, %55 ]
  %59 = getelementptr inbounds i32, i32* %9, i64 %58
  %60 = load i32, i32* %59, align 4, !tbaa !5
  %61 = call i32 (i8*, ...) @printf(i8* nonnull dereferenceable(1) getelementptr inbounds ([4 x i8], [4 x i8]* @.str.2, i64 0, i64 0), i32 %60)
  %62 = bitcast i32* %12 to i8*
  %63 = load i32, i32* %2, align 4, !tbaa !5
  %64 = sext i32 %63 to i64
  call void @qsort(i8* nonnull %62, i64 %64, i64 4, i32 (i8*, i8*)* nonnull @compare) #6
  %65 = load i32, i32* %2, align 4, !tbaa !5
  %66 = icmp sgt i32 %65, 1
  br i1 %66, label %67, label %79

67:                                               ; preds = %57, %67
  %68 = phi i64 [ %72, %67 ], [ 0, %57 ]
  %69 = getelementptr inbounds i32, i32* %12, i64 %68
  %70 = load i32, i32* %69, align 4, !tbaa !5
  %71 = call i32 (i8*, ...) @printf(i8* nonnull dereferenceable(1) getelementptr inbounds ([4 x i8], [4 x i8]* @.str.2, i64 0, i64 0), i32 %70)
  %72 = add nuw nsw i64 %68, 1
  %73 = load i32, i32* %2, align 4, !tbaa !5
  %74 = add nsw i32 %73, -1
  %75 = sext i32 %74 to i64
  %76 = icmp slt i64 %72, %75
  br i1 %76, label %67, label %77, !llvm.loop !13

77:                                               ; preds = %67
  %78 = and i64 %72, 4294967295
  br label %79

79:                                               ; preds = %77, %57
  %80 = phi i64 [ 0, %57 ], [ %78, %77 ]
  %81 = getelementptr inbounds i32, i32* %12, i64 %80
  %82 = load i32, i32* %81, align 4, !tbaa !5
  %83 = call i32 (i8*, ...) @printf(i8* nonnull dereferenceable(1) getelementptr inbounds ([4 x i8], [4 x i8]* @.str.3, i64 0, i64 0), i32 %82)
  call void @llvm.stackrestore(i8* %8)
  call void @llvm.lifetime.end.p0i8(i64 4, i8* nonnull %4) #6
  call void @llvm.lifetime.end.p0i8(i64 4, i8* nonnull %3) #6
  ret i32 0
}

; Function Attrs: argmemonly mustprogress nofree nosync nounwind willreturn
declare void @llvm.lifetime.start.p0i8(i64 immarg, i8* nocapture) #2

; Function Attrs: nofree nounwind
declare noundef i32 @__isoc99_scanf(i8* nocapture noundef readonly, ...) local_unnamed_addr #3

; Function Attrs: mustprogress nofree nosync nounwind willreturn
declare i8* @llvm.stacksave() #4

; Function Attrs: nofree
declare void @qsort(i8* noundef, i64 noundef, i64 noundef, i32 (i8*, i8*)* nocapture noundef) local_unnamed_addr #5

; Function Attrs: nofree nounwind
declare noundef i32 @printf(i8* nocapture noundef readonly, ...) local_unnamed_addr #3

; Function Attrs: mustprogress nofree nosync nounwind willreturn
declare void @llvm.stackrestore(i8*) #4

; Function Attrs: argmemonly mustprogress nofree nosync nounwind willreturn
declare void @llvm.lifetime.end.p0i8(i64 immarg, i8* nocapture) #2


!llvm.module.flags = !{!0, !1, !2, !3}
!llvm.ident = !{!4}

!0 = !{i32 1, !"wchar_size", i32 4}
!1 = !{i32 7, !"PIC Level", i32 2}
!2 = !{i32 7, !"PIE Level", i32 2}
!3 = !{i32 7, !"uwtable", i32 1}
!4 = !{!"clang version 13.0.0"}
!5 = !{!6, !6, i64 0}
!6 = !{!"int", !7, i64 0}
!7 = !{!"omnipotent char", !8, i64 0}
!8 = !{!"Simple C/C++ TBAA"}
!9 = distinct !{!9, !10}
!10 = !{!"llvm.loop.mustprogress"}
!11 = distinct !{!11, !10}
!12 = distinct !{!12, !10}
!13 = distinct !{!13, !10}
